; ModuleID = '34/3140.c'
source_filename = "34/3140.c"
target datalayout = "e-m:e-p270:32:32-p271:32:32-p272:64:64-i64:64-f80:128-n8:16:32:64-S128"
target triple = "x86_64-pc-linux-gnu"

@.str = private unnamed_addr constant [3 x i8] c"%d\00", align 1
@.str.1 = private unnamed_addr constant [11 x i8] c"%d*3+1=%d\0A\00", align 1
@.str.2 = private unnamed_addr constant [9 x i8] c"%d/2=%d\0A\00", align 1
@.str.3 = private unnamed_addr constant [4 x i8] c"End\00", align 1

; Function Attrs: noinline nounwind uwtable
define dso_local i32 @main() #0 {
  %1 = alloca i32, align 4
  %2 = alloca i32, align 4
  %3 = alloca i32, align 4
  store i32 0, i32* %1, align 4
  store i32 0, i32* %3, align 4
  %4 = call i32 (i8*, ...) @__isoc99_scanf(i8* getelementptr inbounds ([3 x i8], [3 x i8]* @.str, i64 0, i64 0), i32* %2)
  br label %5

5:                                                ; preds = %29, %0
  %6 = load i32, i32* %2, align 4
  %7 = icmp eq i32 %6, 1
  br i1 %7, label %8, label %9

8:                                                ; preds = %5
  br label %32

9:                                                ; preds = %5
  %10 = load i32, i32* %2, align 4
  %11 = srem i32 %10, 2
  %12 = icmp ne i32 %11, 0
  br i1 %12, label %13, label %21

13:                                               ; preds = %9
  %14 = load i32, i32* %2, align 4
  store i32 %14, i32* %3, align 4
  %15 = load i32, i32* %2, align 4
  %16 = mul nsw i32 %15, 3
  %17 = add nsw i32 %16, 1
  store i32 %17, i32* %2, align 4
  %18 = load i32, i32* %3, align 4
  %19 = load i32, i32* %2, align 4
  %20 = call i32 (i8*, ...) @printf(i8* getelementptr inbounds ([11 x i8], [11 x i8]* @.str.1, i64 0, i64 0), i32 %18, i32 %19)
  br label %28

21:                                               ; preds = %9
  %22 = load i32, i32* %2, align 4
  store i32 %22, i32* %3, align 4
  %23 = load i32, i32* %2, align 4
  %24 = sdiv i32 %23, 2
  store i32 %24, i32* %2, align 4
  %25 = load i32, i32* %3, align 4
  %26 = load i32, i32* %2, align 4
  %27 = call i32 (i8*, ...) @printf(i8* getelementptr inbounds ([9 x i8], [9 x i8]* @.str.2, i64 0, i64 0), i32 %25, i32 %26)
  br label %28

28:                                               ; preds = %21, %13
  br label %29

29:                                               ; preds = %28
  %30 = load i32, i32* %2, align 4
  %31 = icmp ne i32 %30, 1
  br i1 %31, label %5, label %32

32:                                               ; preds = %29, %8
  %33 = load i32, i32* %2, align 4
  %34 = icmp eq i32 %33, 1
  br i1 %34, label %35, label %37

35:                                               ; preds = %32
  %36 = call i32 (i8*, ...) @printf(i8* getelementptr inbounds ([4 x i8], [4 x i8]* @.str.3, i64 0, i64 0))
  br label %37

37:                                               ; preds = %35, %32
  %38 = call i32 @getchar()
  %39 = call i32 @getchar()
  %40 = call i32 @getchar()
  %41 = call i32 @getchar()
  %42 = call i32 @getchar()
  %43 = call i32 @getchar()
  %44 = call i32 @getchar()
  %45 = call i32 @getchar()
  %46 = call i32 @getchar()
  %47 = call i32 @getchar()
  %48 = call i32 @getchar()
  %49 = call i32 @getchar()
  %50 = call i32 @getchar()
  %51 = call i32 @getchar()
  %52 = load i32, i32* %1, align 4
  ret i32 %52
}

declare dso_local i32 @__isoc99_scanf(i8*, ...) #1

declare dso_local i32 @printf(i8*, ...) #1

declare dso_local i32 @getchar() #1


!llvm.module.flags = !{!0}
!llvm.ident = !{!1}

!0 = !{i32 1, !"wchar_size", i32 4}
!1 = !{!"clang version 10.0.0-4ubuntu1 "}
